
boot_elf:     file format elf32-littlearm

Disassembly of section .text:

00000000 <_start>:
   0:	e3a00453 	mov	r0, #1392508928	; 0x53000000
   4:	e3a01000 	mov	r1, #0	; 0x0
   8:	e5801000 	str	r1, [r0]
   c:	e3a00312 	mov	r0, #1207959552	; 0x48000000
  10:	e28f101c 	add	r1, pc, #28	; 0x1c
  14:	e2803034 	add	r3, r0, #52	; 0x34

00000018 <co_my>:
  18:	e4912004 	ldr	r2, [r1], #4
  1c:	e4802004 	str	r2, [r0], #4
  20:	e1530000 	cmp	r3, r0
  24:	1afffffb 	bne	18 <co_my>
  28:	e3a0d30d 	mov	sp, #872415232	; 0x34000000
  2c:	eb00000d 	bl	68 <led_on>

00000030 <MAIN_LOOP>:
  30:	eafffffe 	b	30 <MAIN_LOOP>

00000034 <sdram_init>:
  34:	22011110 	andcs	r1, r1, #4	; 0x4
  38:	00000700 	andeq	r0, r0, r0, lsl #14
  3c:	00000700 	andeq	r0, r0, r0, lsl #14
  40:	00000700 	andeq	r0, r0, r0, lsl #14
  44:	00000700 	andeq	r0, r0, r0, lsl #14
  48:	00000700 	andeq	r0, r0, r0, lsl #14
  4c:	00000700 	andeq	r0, r0, r0, lsl #14
  50:	00018005 	andeq	r8, r1, r5
  54:	00018005 	andeq	r8, r1, r5
  58:	008c04f4 	streqd	r0, [ip], r4
  5c:	000000b1 	streqh	r0, [r0], -r1
  60:	00000030 	andeq	r0, r0, r0, lsr r0
  64:	00000030 	andeq	r0, r0, r0, lsr r0

00000068 <led_on>:
  68:	e1a0c00d 	mov	ip, sp
  6c:	e92dd800 	stmdb	sp!, {fp, ip, lr, pc}
  70:	e24cb004 	sub	fp, ip, #4	; 0x4
  74:	e24dd004 	sub	sp, sp, #4	; 0x4
  78:	e3a03000 	mov	r3, #0	; 0x0
  7c:	e50b3010 	str	r3, [fp, #-16]
  80:	e3a03456 	mov	r3, #1442840576	; 0x56000000
  84:	e2833010 	add	r3, r3, #16	; 0x10
  88:	e3a02b15 	mov	r2, #21504	; 0x5400
  8c:	e5832000 	str	r2, [r3]
  90:	e51b3010 	ldr	r3, [fp, #-16]
  94:	e3530009 	cmp	r3, #9	; 0x9
  98:	ca000003 	bgt	ac <led_on+0x44>
  9c:	e51b3010 	ldr	r3, [fp, #-16]
  a0:	e2833001 	add	r3, r3, #1	; 0x1
  a4:	e50b3010 	str	r3, [fp, #-16]
  a8:	eafffff8 	b	90 <led_on+0x28>
  ac:	e3a03456 	mov	r3, #1442840576	; 0x56000000
  b0:	e2833014 	add	r3, r3, #20	; 0x14
  b4:	e3a02060 	mov	r2, #96	; 0x60
  b8:	e5832000 	str	r2, [r3]
  bc:	e51b3010 	ldr	r3, [fp, #-16]
  c0:	e3530009 	cmp	r3, #9	; 0x9
  c4:	ca000003 	bgt	d8 <led_on+0x70>
  c8:	e51b3010 	ldr	r3, [fp, #-16]
  cc:	e2833001 	add	r3, r3, #1	; 0x1
  d0:	e50b3010 	str	r3, [fp, #-16]
  d4:	eafffff8 	b	bc <led_on+0x54>
  d8:	e3a03456 	mov	r3, #1442840576	; 0x56000000
  dc:	e2833014 	add	r3, r3, #20	; 0x14
  e0:	e3a02000 	mov	r2, #0	; 0x0
  e4:	e5832000 	str	r2, [r3]
  e8:	e51b3010 	ldr	r3, [fp, #-16]
  ec:	e3530009 	cmp	r3, #9	; 0x9
  f0:	ca000003 	bgt	104 <led_on+0x9c>
  f4:	e51b3010 	ldr	r3, [fp, #-16]
  f8:	e2833001 	add	r3, r3, #1	; 0x1
  fc:	e50b3010 	str	r3, [fp, #-16]
 100:	eafffff8 	b	e8 <led_on+0x80>
 104:	e89da808 	ldmia	sp, {r3, fp, sp, pc}